(lp0
S'AILERON_MID'
p1
aS'ELEVATOR_MID'
p2
aS'Fx'
p3
aS'Fy'
p4
aS'Fz'
p5
aS'Kdx'
p6
aS'Kdy'
p7
aS'Kdz'
p8
aS'Kix'
p9
aS'Kiy'
p10
aS'Kiz'
p11
aS'Kpx'
p12
aS'Kpy'
p13
aS'Kpz'
p14
aS'Ksx'
p15
aS'Ksy'
p16
aS'Ksz'
p17
aS'Kx'
p18
aS'Ky'
p19
aS'Kz'
p20
aS'THROTTLE_MID'
p21
a.